target datalayout = "e-m:e-p270:32:32-p271:32:32-p272:64:64-i64:64-i128:128-f80:128-n8:16:32:64-S128"
target triple = "x86_64-pc-linux-gnu"

@spdif_mpeg_pkt_offset = internal constant [2 x [3 x i16]] [[3 x i16] [i16 3072, i16 9216, i16 4608], [3 x i16] [i16 1536, i16 4608, i16 4608]], align 2
@.str.4 = private unnamed_addr constant [33 x i8] c"Invalid AAC packet in IEC 61937\0A\00", align 1
@.str.5 = private unnamed_addr constant [30 x i8] c"Data type 0x%04x in IEC 61937\00", align 1

; Function Attrs: nounwind uwtable
define internal i32 @spdif_get_offset_and_codec(ptr noundef %0, i32 noundef %1, ptr noundef %2, ptr noundef %3, ptr noundef %4) #0 {
  %6 = alloca i32, align 4
  %7 = alloca ptr, align 8
  %8 = alloca i32, align 4
  %9 = alloca ptr, align 8
  %10 = alloca ptr, align 8
  %11 = alloca ptr, align 8
  %12 = alloca i32, align 4
  %13 = alloca i8, align 1
  %14 = alloca i32, align 4
  %15 = alloca i32, align 4
  store ptr %0, ptr %7, align 8, !tbaa !15
  store i32 %1, ptr %8, align 4, !tbaa !9
  store ptr %2, ptr %9, align 8, !tbaa !4
  store ptr %3, ptr %10, align 8, !tbaa !17
  store ptr %4, ptr %11, align 8, !tbaa !11
  call void @llvm.lifetime.start.p0(i64 4, ptr %12) #4
  call void @llvm.lifetime.start.p0(i64 1, ptr %13) #4
  call void @llvm.lifetime.start.p0(i64 4, ptr %14) #4
  %16 = load i32, ptr %8, align 4, !tbaa !9
  %17 = and i32 %16, 255
  switch i32 %17, label %78 [
    i32 1, label %18
    i32 4, label %21
    i32 5, label %26
    i32 6, label %31
    i32 7, label %34
    i32 8, label %51
    i32 9, label %56
    i32 10, label %61
    i32 11, label %66
    i32 12, label %69
    i32 13, label %72
    i32 21, label %75
  ]

18:                                               ; preds = %5
  %19 = load ptr, ptr %10, align 8, !tbaa !17
  store i32 6144, ptr %19, align 4, !tbaa !9
  %20 = load ptr, ptr %11, align 8, !tbaa !11
  store i32 86019, ptr %20, align 4, !tbaa !9
  br label %85

21:                                               ; preds = %5
  %22 = load i16, ptr getelementptr inbounds ([2 x [3 x i16]], ptr @spdif_mpeg_pkt_offset, i64 0, i64 1), align 2, !tbaa !19
  %23 = zext i16 %22 to i32
  %24 = load ptr, ptr %10, align 8, !tbaa !17
  store i32 %23, ptr %24, align 4, !tbaa !9
  %25 = load ptr, ptr %11, align 8, !tbaa !11
  store i32 86058, ptr %25, align 4, !tbaa !9
  br label %85

26:                                               ; preds = %5
  %27 = load i16, ptr getelementptr inbounds ([2 x [3 x i16]], ptr @spdif_mpeg_pkt_offset, i64 0, i64 1), align 2, !tbaa !19
  %28 = zext i16 %27 to i32
  %29 = load ptr, ptr %10, align 8, !tbaa !17
  store i32 %28, ptr %29, align 4, !tbaa !9
  %30 = load ptr, ptr %11, align 8, !tbaa !11
  store i32 86017, ptr %30, align 4, !tbaa !9
  br label %85

31:                                               ; preds = %5
  %32 = load ptr, ptr %10, align 8, !tbaa !17
  store i32 4608, ptr %32, align 4, !tbaa !9
  %33 = load ptr, ptr %11, align 8, !tbaa !11
  store i32 86017, ptr %33, align 4, !tbaa !9
  br label %85

34:                                               ; preds = %5
  %35 = load ptr, ptr %9, align 8, !tbaa !4
  %36 = call i32 @av_adts_header_parse(ptr noundef %35, ptr noundef %12, ptr noundef %13)
  store i32 %36, ptr %14, align 4, !tbaa !9
  %37 = load i32, ptr %14, align 4, !tbaa !9
  %38 = icmp slt i32 %37, 0
  br i1 %38, label %39, label %46

39:                                               ; preds = %34
  %40 = load ptr, ptr %7, align 8, !tbaa !15
  %41 = icmp ne ptr %40, null
  br i1 %41, label %42, label %44

42:                                               ; preds = %39
  %43 = load ptr, ptr %7, align 8, !tbaa !15
  call void (ptr, i32, ptr, ...) @av_log(ptr noundef %43, i32 noundef 16, ptr noundef @.str.4)
  br label %44

44:                                               ; preds = %42, %39
  %45 = load i32, ptr %14, align 4, !tbaa !9
  store i32 %45, ptr %6, align 4
  store i32 1, ptr %15, align 4
  br label %86

46:                                               ; preds = %34
  %47 = load i32, ptr %12, align 4, !tbaa !9
  %48 = shl i32 %47, 2
  %49 = load ptr, ptr %10, align 8, !tbaa !17
  store i32 %48, ptr %49, align 4, !tbaa !9
  %50 = load ptr, ptr %11, align 8, !tbaa !11
  store i32 86018, ptr %50, align 4, !tbaa !9
  br label %85

51:                                               ; preds = %5
  %52 = load i16, ptr @spdif_mpeg_pkt_offset, align 2, !tbaa !19
  %53 = zext i16 %52 to i32
  %54 = load ptr, ptr %10, align 8, !tbaa !17
  store i32 %53, ptr %54, align 4, !tbaa !9
  %55 = load ptr, ptr %11, align 8, !tbaa !11
  store i32 86058, ptr %55, align 4, !tbaa !9
  br label %85

56:                                               ; preds = %5
  %57 = load i16, ptr getelementptr inbounds ([3 x i16], ptr @spdif_mpeg_pkt_offset, i64 0, i64 1), align 2, !tbaa !19
  %58 = zext i16 %57 to i32
  %59 = load ptr, ptr %10, align 8, !tbaa !17
  store i32 %58, ptr %59, align 4, !tbaa !9
  %60 = load ptr, ptr %11, align 8, !tbaa !11
  store i32 86016, ptr %60, align 4, !tbaa !9
  br label %85

61:                                               ; preds = %5
  %62 = load i16, ptr getelementptr inbounds ([3 x i16], ptr @spdif_mpeg_pkt_offset, i64 0, i64 2), align 2, !tbaa !19
  %63 = zext i16 %62 to i32
  %64 = load ptr, ptr %10, align 8, !tbaa !17
  store i32 %63, ptr %64, align 4, !tbaa !9
  %65 = load ptr, ptr %11, align 8, !tbaa !11
  store i32 86017, ptr %65, align 4, !tbaa !9
  br label %85

66:                                               ; preds = %5
  %67 = load ptr, ptr %10, align 8, !tbaa !17
  store i32 2048, ptr %67, align 4, !tbaa !9
  %68 = load ptr, ptr %11, align 8, !tbaa !11
  store i32 86020, ptr %68, align 4, !tbaa !9
  br label %85

69:                                               ; preds = %5
  %70 = load ptr, ptr %10, align 8, !tbaa !17
  store i32 4096, ptr %70, align 4, !tbaa !9
  %71 = load ptr, ptr %11, align 8, !tbaa !11
  store i32 86020, ptr %71, align 4, !tbaa !9
  br label %85

72:                                               ; preds = %5
  %73 = load ptr, ptr %10, align 8, !tbaa !17
  store i32 8192, ptr %73, align 4, !tbaa !9
  %74 = load ptr, ptr %11, align 8, !tbaa !11
  store i32 86020, ptr %74, align 4, !tbaa !9
  br label %85

75:                                               ; preds = %5
  %76 = load ptr, ptr %10, align 8, !tbaa !17
  store i32 24576, ptr %76, align 4, !tbaa !9
  %77 = load ptr, ptr %11, align 8, !tbaa !11
  store i32 86056, ptr %77, align 4, !tbaa !9
  br label %85

78:                                               ; preds = %5
  %79 = load ptr, ptr %7, align 8, !tbaa !15
  %80 = icmp ne ptr %79, null
  br i1 %80, label %81, label %84

81:                                               ; preds = %78
  %82 = load ptr, ptr %7, align 8, !tbaa !15
  %83 = load i32, ptr %8, align 4, !tbaa !9
  call void (ptr, ptr, ...) @avpriv_request_sample(ptr noundef %82, ptr noundef @.str.5, i32 noundef %83)
  br label %84

84:                                               ; preds = %81, %78
  store i32 -1163346256, ptr %6, align 4
  store i32 1, ptr %15, align 4
  br label %86

85:                                               ; preds = %75, %72, %69, %66, %61, %56, %51, %46, %31, %26, %21, %18
  store i32 0, ptr %6, align 4
  store i32 1, ptr %15, align 4
  br label %86

86:                                               ; preds = %85, %84, %44
  call void @llvm.lifetime.end.p0(i64 4, ptr %14) #4
  call void @llvm.lifetime.end.p0(i64 1, ptr %13) #4
  call void @llvm.lifetime.end.p0(i64 4, ptr %12) #4
  %87 = load i32, ptr %6, align 4
  ret i32 %87
}

; Function Attrs: nounwind uwtable
define i32 @ff_spdif_probe(ptr noundef %0, i32 noundef %1, ptr noundef %2) #0 {
  %4 = alloca i32, align 4
  %5 = alloca ptr, align 8
  %6 = alloca i32, align 4
  %7 = alloca ptr, align 8
  %8 = alloca ptr, align 8
  %9 = alloca ptr, align 8
  %10 = alloca ptr, align 8
  %11 = alloca i32, align 4
  %12 = alloca i32, align 4
  %13 = alloca i32, align 4
  %14 = alloca i32, align 4
  %15 = alloca i32, align 4
  store ptr %0, ptr %5, align 8, !tbaa !4
  store i32 %1, ptr %6, align 4, !tbaa !9
  store ptr %2, ptr %7, align 8, !tbaa !11
  call void @llvm.lifetime.start.p0(i64 8, ptr %8) #4
  %16 = load ptr, ptr %5, align 8, !tbaa !4
  store ptr %16, ptr %8, align 8, !tbaa !4
  call void @llvm.lifetime.start.p0(i64 8, ptr %9) #4
  %17 = load ptr, ptr %5, align 8, !tbaa !4
  %18 = load i32, ptr %6, align 4, !tbaa !9
  %19 = sub nsw i32 %18, 1
  %20 = icmp sgt i32 32768, %19
  br i1 %20, label %21, label %24

21:                                               ; preds = %3
  %22 = load i32, ptr %6, align 4, !tbaa !9
  %23 = sub nsw i32 %22, 1
  br label %25

24:                                               ; preds = %3
  br label %25

25:                                               ; preds = %24, %21
  %26 = phi i32 [ %23, %21 ], [ 32768, %24 ]
  %27 = sext i32 %26 to i64
  %28 = getelementptr inbounds i8, ptr %17, i64 %27
  store ptr %28, ptr %9, align 8, !tbaa !4
  call void @llvm.lifetime.start.p0(i64 8, ptr %10) #4
  %29 = load ptr, ptr %8, align 8, !tbaa !4
  %30 = getelementptr inbounds i8, ptr %29, i64 7
  store ptr %30, ptr %10, align 8, !tbaa !4
  call void @llvm.lifetime.start.p0(i64 4, ptr %11) #4
  store i32 0, ptr %11, align 4, !tbaa !9
  call void @llvm.lifetime.start.p0(i64 4, ptr %12) #4
  store i32 0, ptr %12, align 4, !tbaa !9
  call void @llvm.lifetime.start.p0(i64 4, ptr %13) #4
  store i32 0, ptr %13, align 4, !tbaa !9
  call void @llvm.lifetime.start.p0(i64 4, ptr %14) #4
  br label %31

31:                                               ; preds = %128, %25
  %32 = load ptr, ptr %8, align 8, !tbaa !4
  %33 = load ptr, ptr %9, align 8, !tbaa !4
  %34 = icmp ult ptr %32, %33
  br i1 %34, label %35, label %131

35:                                               ; preds = %31
  %36 = load i32, ptr %11, align 4, !tbaa !9
  %37 = shl i32 %36, 8
  %38 = load ptr, ptr %8, align 8, !tbaa !4
  %39 = load i8, ptr %38, align 1, !tbaa !12
  %40 = zext i8 %39 to i32
  %41 = or i32 %37, %40
  store i32 %41, ptr %11, align 4, !tbaa !9
  %42 = load i32, ptr %11, align 4, !tbaa !9
  %43 = icmp eq i32 %42, 1928863566
  br i1 %43, label %44, label %127

44:                                               ; preds = %35
  %45 = load ptr, ptr %8, align 8, !tbaa !4
  %46 = getelementptr inbounds i8, ptr %45, i64 1
  %47 = load i8, ptr %46, align 1, !tbaa !12
  %48 = zext i8 %47 to i32
  %49 = icmp slt i32 %48, 55
  br i1 %49, label %50, label %127

50:                                               ; preds = %44
  %51 = load i32, ptr %12, align 4, !tbaa !9
  %52 = add nsw i32 %51, 1
  store i32 %52, ptr %12, align 4, !tbaa !9
  %53 = load ptr, ptr %8, align 8, !tbaa !4
  %54 = load ptr, ptr %10, align 8, !tbaa !4
  %55 = icmp eq ptr %53, %54
  br i1 %55, label %56, label %62

56:                                               ; preds = %50
  %57 = load i32, ptr %13, align 4, !tbaa !9
  %58 = add nsw i32 %57, 1
  store i32 %58, ptr %13, align 4, !tbaa !9
  %59 = icmp sge i32 %58, 2
  br i1 %59, label %60, label %61

60:                                               ; preds = %56
  store i32 100, ptr %4, align 4
  store i32 1, ptr %15, align 4
  br label %140

61:                                               ; preds = %56
  br label %63

62:                                               ; preds = %50
  store i32 0, ptr %13, align 4, !tbaa !9
  br label %63

63:                                               ; preds = %62, %61
  %64 = load ptr, ptr %8, align 8, !tbaa !4
  %65 = getelementptr inbounds i8, ptr %64, i64 4
  %66 = getelementptr inbounds i8, ptr %65, i64 7
  %67 = load ptr, ptr %5, align 8, !tbaa !4
  %68 = load i32, ptr %6, align 4, !tbaa !9
  %69 = sext i32 %68 to i64
  %70 = getelementptr inbounds i8, ptr %67, i64 %69
  %71 = icmp ugt ptr %66, %70
  br i1 %71, label %72, label %73

72:                                               ; preds = %63
  br label %131

73:                                               ; preds = %63
  %74 = load ptr, ptr %8, align 8, !tbaa !4
  %75 = getelementptr inbounds i8, ptr %74, i64 16384
  %76 = load ptr, ptr %5, align 8, !tbaa !4
  %77 = load i32, ptr %6, align 4, !tbaa !9
  %78 = sext i32 %77 to i64
  %79 = getelementptr inbounds i8, ptr %76, i64 %78
  %80 = getelementptr inbounds i8, ptr %79, i64 -1
  %81 = icmp ugt ptr %75, %80
  br i1 %81, label %82, label %88

82:                                               ; preds = %73
  %83 = load ptr, ptr %5, align 8, !tbaa !4
  %84 = load i32, ptr %6, align 4, !tbaa !9
  %85 = sext i32 %84 to i64
  %86 = getelementptr inbounds i8, ptr %83, i64 %85
  %87 = getelementptr inbounds i8, ptr %86, i64 -1
  br label %91

88:                                               ; preds = %73
  %89 = load ptr, ptr %8, align 8, !tbaa !4
  %90 = getelementptr inbounds i8, ptr %89, i64 16384
  br label %91

91:                                               ; preds = %88, %82
  %92 = phi ptr [ %87, %82 ], [ %90, %88 ]
  store ptr %92, ptr %9, align 8, !tbaa !4
  %93 = load ptr, ptr %8, align 8, !tbaa !4
  %94 = getelementptr inbounds i8, ptr %93, i64 2
  %95 = load i8, ptr %94, align 1, !tbaa !12
  %96 = zext i8 %95 to i32
  %97 = shl i32 %96, 8
  %98 = load ptr, ptr %8, align 8, !tbaa !4
  %99 = getelementptr inbounds i8, ptr %98, i64 1
  %100 = load i8, ptr %99, align 1, !tbaa !12
  %101 = zext i8 %100 to i32
  %102 = or i32 %97, %101
  %103 = load ptr, ptr %8, align 8, !tbaa !4
  %104 = getelementptr inbounds i8, ptr %103, i64 5
  %105 = load ptr, ptr %7, align 8, !tbaa !11
  %106 = call i32 @spdif_get_offset_and_codec(ptr noundef null, i32 noundef %102, ptr noundef %104, ptr noundef %14, ptr noundef %105)
  %107 = icmp ne i32 %106, 0
  br i1 %107, label %126, label %108

108:                                              ; preds = %91
  %109 = load ptr, ptr %8, align 8, !tbaa !4
  %110 = load i32, ptr %14, align 4, !tbaa !9
  %111 = sext i32 %110 to i64
  %112 = getelementptr inbounds i8, ptr %109, i64 %111
  %113 = load ptr, ptr %5, align 8, !tbaa !4
  %114 = load i32, ptr %6, align 4, !tbaa !9
  %115 = sext i32 %114 to i64
  %116 = getelementptr inbounds i8, ptr %113, i64 %115
  %117 = icmp uge ptr %112, %116
  br i1 %117, label %118, label %119

118:                                              ; preds = %108
  br label %131

119:                                              ; preds = %108
  %120 = load ptr, ptr %8, align 8, !tbaa !4
  %121 = load i32, ptr %14, align 4, !tbaa !9
  %122 = sext i32 %121 to i64
  %123 = getelementptr inbounds i8, ptr %120, i64 %122
  store ptr %123, ptr %10, align 8, !tbaa !4
  %124 = load ptr, ptr %10, align 8, !tbaa !4
  %125 = getelementptr inbounds i8, ptr %124, i64 -7
  store ptr %125, ptr %8, align 8, !tbaa !4
  br label %126

126:                                              ; preds = %119, %91
  br label %127

127:                                              ; preds = %126, %44, %35
  br label %128

128:                                              ; preds = %127
  %129 = load ptr, ptr %8, align 8, !tbaa !4
  %130 = getelementptr inbounds nuw i8, ptr %129, i32 1
  store ptr %130, ptr %8, align 8, !tbaa !4
  br label %31, !llvm.loop !13

131:                                              ; preds = %118, %72, %31
  %132 = load i32, ptr %12, align 4, !tbaa !9
  %133 = icmp ne i32 %132, 0
  br i1 %133, label %135, label %134

134:                                              ; preds = %131
  store i32 0, ptr %4, align 4
  store i32 1, ptr %15, align 4
  br label %140

135:                                              ; preds = %131
  %136 = load i32, ptr %12, align 4, !tbaa !9
  %137 = icmp sge i32 %136, 6
  br i1 %137, label %138, label %139

138:                                              ; preds = %135
  store i32 50, ptr %4, align 4
  store i32 1, ptr %15, align 4
  br label %140

139:                                              ; preds = %135
  store i32 12, ptr %4, align 4
  store i32 1, ptr %15, align 4
  br label %140

140:                                              ; preds = %139, %138, %134, %60
  call void @llvm.lifetime.end.p0(i64 4, ptr %14) #4
  call void @llvm.lifetime.end.p0(i64 4, ptr %13) #4
  call void @llvm.lifetime.end.p0(i64 4, ptr %12) #4
  call void @llvm.lifetime.end.p0(i64 4, ptr %11) #4
  call void @llvm.lifetime.end.p0(i64 8, ptr %10) #4
  call void @llvm.lifetime.end.p0(i64 8, ptr %9) #4
  call void @llvm.lifetime.end.p0(i64 8, ptr %8) #4
  %141 = load i32, ptr %4, align 4
  ret i32 %141
}