; Function Attrs: nounwind uwtable
define range(i32 0, 101) i32 @ff_spdif_probe(ptr noundef %0, i32 noundef %1, ptr noundef writeonly captures(none) %2) local_unnamed_addr #0 {
  %4 = alloca i32, align 4
  %5 = alloca i8, align 1
  %6 = tail call i32 @llvm.smin.i32(i32 %1, i32 32769)
  %7 = sext i32 %6 to i64
  %8 = getelementptr i8, ptr %0, i64 %7
  %9 = getelementptr i8, ptr %8, i64 -1
  %10 = icmp ult ptr %0, %9
  br i1 %10, label %.lr.ph, label %.loopexit

.lr.ph:                                           ; preds = %3
  %11 = getelementptr inbounds nuw i8, ptr %0, i64 7
  %12 = sext i32 %1 to i64
  %13 = getelementptr inbounds i8, ptr %0, i64 %12
  %14 = getelementptr inbounds i8, ptr %13, i64 -1
  br label %15

15:                                               ; preds = %.lr.ph, %60
  %.064 = phi i32 [ 0, %.lr.ph ], [ %.2, %60 ]
  %.03663 = phi i32 [ 0, %.lr.ph ], [ %.238, %60 ]
  %.03962 = phi i32 [ 0, %.lr.ph ], [ %19, %60 ]
  %.04061 = phi ptr [ %11, %.lr.ph ], [ %.141, %60 ]
  %.04260 = phi ptr [ %9, %.lr.ph ], [ %.143, %60 ]
  %.04459 = phi ptr [ %0, %.lr.ph ], [ %61, %60 ]
  %16 = shl i32 %.03962, 8
  %17 = load i8, ptr %.04459, align 1, !tbaa !4
  %18 = zext i8 %17 to i32
  %19 = or disjoint i32 %16, %18
  %20 = icmp eq i32 %19, 1928863566
  br i1 %20, label %21, label %60

21:                                               ; preds = %15
  %22 = getelementptr inbounds nuw i8, ptr %.04459, i64 1
  %23 = load i8, ptr %22, align 1, !tbaa !4
  %24 = icmp ult i8 %23, 55
  br i1 %24, label %25, label %60

25:                                               ; preds = %21
  %26 = add nsw i32 %.03663, 1
  %27 = icmp eq ptr %.04459, %.04061
  br i1 %27, label %28, label %30

28:                                               ; preds = %25
  %29 = icmp sgt i32 %.064, 0
  br i1 %29, label %.loopexit, label %30

30:                                               ; preds = %25, %28
  %.1 = phi i32 [ 1, %28 ], [ 0, %25 ]
  %31 = getelementptr inbounds nuw i8, ptr %.04459, i64 11
  %32 = icmp ugt ptr %31, %13
  br i1 %32, label %._crit_edge, label %33

33:                                               ; preds = %30
  %34 = getelementptr inbounds nuw i8, ptr %.04459, i64 16384
  %35 = icmp ugt ptr %34, %14
  %36 = select i1 %35, ptr %14, ptr %34
  call void @llvm.lifetime.start.p0(i64 4, ptr nonnull %4) #5
  call void @llvm.lifetime.start.p0(i64 1, ptr nonnull %5) #5
  switch i8 %23, label %spdif_get_offset_and_codec.exit [
    i8 1, label %37
    i8 4, label %38
    i8 5, label %39
    i8 6, label %40
    i8 7, label %41
    i8 8, label %49
    i8 9, label %50
    i8 10, label %51
    i8 11, label %52
    i8 12, label %53
    i8 13, label %54
    i8 21, label %55
  ]

37:                                               ; preds = %33
  store i32 86019, ptr %2, align 4, !tbaa !7
  br label %56

38:                                               ; preds = %33
  store i32 86058, ptr %2, align 4, !tbaa !7
  br label %56

39:                                               ; preds = %33
  store i32 86017, ptr %2, align 4, !tbaa !7
  br label %56

40:                                               ; preds = %33
  store i32 86017, ptr %2, align 4, !tbaa !7
  br label %56

41:                                               ; preds = %33
  %42 = getelementptr inbounds nuw i8, ptr %.04459, i64 5
  %43 = call i32 @av_adts_header_parse(ptr noundef nonnull %42, ptr noundef nonnull %4, ptr noundef nonnull %5) #5
  %44 = icmp slt i32 %43, 0
  br i1 %44, label %spdif_get_offset_and_codec.exit, label %45

45:                                               ; preds = %41
  %46 = load i32, ptr %4, align 4, !tbaa !7
  %47 = shl i32 %46, 2
  store i32 86018, ptr %2, align 4, !tbaa !7
  %48 = sext i32 %47 to i64
  br label %56

49:                                               ; preds = %33
  store i32 86058, ptr %2, align 4, !tbaa !7
  br label %56

50:                                               ; preds = %33
  store i32 86016, ptr %2, align 4, !tbaa !7
  br label %56

51:                                               ; preds = %33
  store i32 86017, ptr %2, align 4, !tbaa !7
  br label %56

52:                                               ; preds = %33
  store i32 86020, ptr %2, align 4, !tbaa !7
  br label %56

53:                                               ; preds = %33
  store i32 86020, ptr %2, align 4, !tbaa !7
  br label %56

54:                                               ; preds = %33
  store i32 86020, ptr %2, align 4, !tbaa !7
  br label %56

55:                                               ; preds = %33
  store i32 86056, ptr %2, align 4, !tbaa !7
  br label %56

spdif_get_offset_and_codec.exit:                  ; preds = %33, %41
  call void @llvm.lifetime.end.p0(i64 1, ptr nonnull %5) #5
  call void @llvm.lifetime.end.p0(i64 4, ptr nonnull %4) #5
  br label %60

56:                                               ; preds = %55, %54, %53, %52, %51, %50, %49, %45, %40, %39, %38, %37
  %.254.ph = phi i64 [ 6144, %37 ], [ 1536, %38 ], [ 1536, %39 ], [ 4608, %40 ], [ %48, %45 ], [ 3072, %49 ], [ 9216, %50 ], [ 4608, %51 ], [ 2048, %52 ], [ 4096, %53 ], [ 8192, %54 ], [ 24576, %55 ]
  call void @llvm.lifetime.end.p0(i64 1, ptr nonnull %5) #5
  call void @llvm.lifetime.end.p0(i64 4, ptr nonnull %4) #5
  %57 = getelementptr inbounds i8, ptr %.04459, i64 %.254.ph
  %.not50 = icmp ult ptr %57, %13
  br i1 %.not50, label %58, label %._crit_edge

58:                                               ; preds = %56
  %59 = getelementptr inbounds i8, ptr %57, i64 -7
  br label %60

60:                                               ; preds = %spdif_get_offset_and_codec.exit, %15, %21, %58
  %.145 = phi ptr [ %.04459, %spdif_get_offset_and_codec.exit ], [ %59, %58 ], [ %.04459, %21 ], [ %.04459, %15 ]
  %.143 = phi ptr [ %36, %spdif_get_offset_and_codec.exit ], [ %36, %58 ], [ %.04260, %21 ], [ %.04260, %15 ]
  %.141 = phi ptr [ %.04061, %spdif_get_offset_and_codec.exit ], [ %57, %58 ], [ %.04061, %21 ], [ %.04061, %15 ]
  %.238 = phi i32 [ %26, %spdif_get_offset_and_codec.exit ], [ %26, %58 ], [ %.03663, %21 ], [ %.03663, %15 ]
  %.2 = phi i32 [ %.1, %spdif_get_offset_and_codec.exit ], [ %.1, %58 ], [ %.064, %21 ], [ %.064, %15 ]
  %61 = getelementptr inbounds nuw i8, ptr %.145, i64 1
  %62 = icmp ult ptr %61, %.143
  br i1 %62, label %15, label %._crit_edge, !llvm.loop !9

._crit_edge:                                      ; preds = %60, %30, %56
  %.137 = phi i32 [ %.238, %60 ], [ %26, %30 ], [ %26, %56 ]
  %.not51 = icmp eq i32 %.137, 0
  br i1 %.not51, label %.loopexit, label %63

63:                                               ; preds = %._crit_edge
  %64 = icmp sgt i32 %.137, 5
  %. = select i1 %64, i32 50, i32 12
  br label %.loopexit

.loopexit:                                        ; preds = %28, %3, %63, %._crit_edge
  %.046 = phi i32 [ 0, %._crit_edge ], [ %., %63 ], [ 0, %3 ], [ 100, %28 ]
  ret i32 %.046
}